target datalayout = "e-m:e-p270:32:32-p271:32:32-p272:64:64-i64:64-i128:128-f80:128-n8:16:32:64-S128"
target triple = "x86_64-pc-linux-gnu"

%struct.FLAC__BitReader = type { ptr, i32, i32, i32, i32, i32, i32, i32, i32, i32, i32, i32, ptr, ptr }

; Function Attrs: nounwind sspstrong uwtable
define hidden i32 @FLAC__bitreader_rewind_to_after_last_seen_framesync(ptr noundef %0) #0 {
  %2 = alloca i32, align 4
  %3 = alloca ptr, align 8
  store ptr %0, ptr %3, align 8, !tbaa !3
  %4 = load ptr, ptr %3, align 8, !tbaa !3
  %5 = getelementptr inbounds nuw %struct.FLAC__BitReader, ptr %4, i32 0, i32 11
  %6 = load i32, ptr %5, align 8, !tbaa !21
  %7 = icmp eq i32 %6, -1
  br i1 %7, label %8, label %13

8:                                                ; preds = %1
  %9 = load ptr, ptr %3, align 8, !tbaa !3
  %10 = getelementptr inbounds nuw %struct.FLAC__BitReader, ptr %9, i32 0, i32 5
  store i32 0, ptr %10, align 8, !tbaa !15
  %11 = load ptr, ptr %3, align 8, !tbaa !3
  %12 = getelementptr inbounds nuw %struct.FLAC__BitReader, ptr %11, i32 0, i32 4
  store i32 0, ptr %12, align 4, !tbaa !16
  store i32 0, ptr %2, align 4
  br label %29

13:                                               ; preds = %1
  %14 = load ptr, ptr %3, align 8, !tbaa !3
  %15 = getelementptr inbounds nuw %struct.FLAC__BitReader, ptr %14, i32 0, i32 11
  %16 = load i32, ptr %15, align 8, !tbaa !21
  %17 = add i32 %16, 1
  %18 = udiv i32 %17, 8
  %19 = load ptr, ptr %3, align 8, !tbaa !3
  %20 = getelementptr inbounds nuw %struct.FLAC__BitReader, ptr %19, i32 0, i32 4
  store i32 %18, ptr %20, align 4, !tbaa !16
  %21 = load ptr, ptr %3, align 8, !tbaa !3
  %22 = getelementptr inbounds nuw %struct.FLAC__BitReader, ptr %21, i32 0, i32 11
  %23 = load i32, ptr %22, align 8, !tbaa !21
  %24 = add i32 %23, 1
  %25 = urem i32 %24, 8
  %26 = mul i32 %25, 8
  %27 = load ptr, ptr %3, align 8, !tbaa !3
  %28 = getelementptr inbounds nuw %struct.FLAC__BitReader, ptr %27, i32 0, i32 5
  store i32 %26, ptr %28, align 8, !tbaa !15
  store i32 1, ptr %2, align 4
  br label %29

29:                                               ; preds = %13, %8
  %30 = load i32, ptr %2, align 4
  ret i32 %30
}