; Function Attrs: mustprogress nofree norecurse nosync nounwind sspstrong willreturn memory(argmem: readwrite) uwtable
define hidden range(i32 0, 2) i32 @FLAC__bitreader_rewind_to_after_last_seen_framesync(ptr noundef captures(none) initializes((20, 28)) %0) local_unnamed_addr #8 {
  %2 = getelementptr inbounds nuw i8, ptr %0, i64 48
  %3 = load i32, ptr %2, align 8, !tbaa !12
  %4 = icmp eq i32 %3, -1
  br i1 %4, label %11, label %5

5:                                                ; preds = %1
  %6 = add nuw i32 %3, 1
  %7 = lshr i32 %6, 3
  %8 = shl i32 %3, 3
  %9 = add i32 %8, 8
  %10 = and i32 %9, 56
  br label %11

11:                                               ; preds = %1, %5
  %.sink8 = phi i32 [ %10, %5 ], [ 0, %1 ]
  %.sink = phi i32 [ %7, %5 ], [ 0, %1 ]
  %.0 = phi i32 [ 1, %5 ], [ 0, %1 ]
  %12 = getelementptr inbounds nuw i8, ptr %0, i64 24
  store i32 %.sink8, ptr %12, align 8, !tbaa !17
  %13 = getelementptr inbounds nuw i8, ptr %0, i64 20
  store i32 %.sink, ptr %13, align 4, !tbaa !16
  ret i32 %.0
}